; Function Attrs: null_pointer_is_valid sspstrong uwtable
define internal i32 @efs_dissect_EfsRpcEncryptFileSrv_request(ptr noundef %0, i32 noundef %1, ptr noundef %2, ptr noundef %3, ptr noundef initializes((72, 80)) %4, ptr noundef %5) #0 {
  %7 = alloca ptr, align 8
  %8 = getelementptr inbounds nuw i8, ptr %4, i64 72
  store ptr @.str.67, ptr %8, align 8
  call void @llvm.lifetime.start.p0(i64 8, ptr nonnull %7) #4
  %9 = load i32, ptr @hf_efs_EfsRpcEncryptFileSrv_Filename, align 4
  %10 = call i32 @dissect_ndr_cvstring(ptr noundef %0, i32 noundef %1, ptr noundef %2, ptr noundef %3, ptr noundef %4, ptr noundef %5, i32 noundef 2, i32 noundef %9, i1 noundef zeroext false, ptr noundef nonnull %7)
  %11 = load ptr, ptr %7, align 8
  call void (ptr, ptr, ...) @proto_item_append_text(ptr noundef %3, ptr noundef nonnull @.str.60, ptr noundef %11)
  call void @llvm.lifetime.end.p0(i64 8, ptr nonnull %7) #4
  %12 = call i32 @dissect_deferred_pointers(ptr noundef %2, ptr noundef %0, i32 noundef %10, ptr noundef %4, ptr noundef %5)
  ret i32 %12
}